; Function Attrs: nounwind uwtable
define ptr @wc_PKCS12_new_ex(ptr noundef %0) local_unnamed_addr #0 {
  %2 = tail call ptr @wolfSSL_Malloc(i64 noundef 32) #9
  %3 = icmp eq ptr %2, null
  br i1 %3, label %6, label %4

4:                                                ; preds = %1
  %5 = getelementptr inbounds nuw i8, ptr %2, i64 8
  tail call void @llvm.memset.p0.i64(ptr noundef nonnull align 8 dereferenceable(32) %5, i8 0, i64 24, i1 false)
  store ptr %0, ptr %2, align 8, !tbaa !3
  br label %6

6:                                                ; preds = %1, %4
  ret ptr %2
}